; Function Attrs: nounwind sspstrong uwtable
define hidden i64 @rb_io_buffer_type_string(i64 noundef %0, i64 noundef %1) #0 {
  %3 = alloca %struct.io_buffer_for_yield_instance_arguments, align 8
  %4 = and i64 %1, 1
  %.not.i = icmp eq i64 %4, 0
  br i1 %.not.i, label %7, label %5

5:                                                ; preds = %2
  %6 = ashr i64 %1, 1
  br label %rb_num2long_inline.exit

7:                                                ; preds = %2
  %8 = tail call i64 @rb_num2long(i64 noundef %1) #25
  br label %rb_num2long_inline.exit

rb_num2long_inline.exit:                          ; preds = %5, %7
  %.0.i = phi i64 [ %6, %5 ], [ %8, %7 ]
  %9 = tail call i64 @rb_str_new(ptr noundef null, i64 noundef %.0.i) #25
  call void @llvm.lifetime.start.p0(i64 32, ptr nonnull %3) #25
  store i64 %0, ptr %3, align 8, !tbaa !23
  %10 = getelementptr inbounds nuw i8, ptr %3, i64 8
  store i64 %9, ptr %10, align 8, !tbaa !25
  %11 = getelementptr inbounds nuw i8, ptr %3, i64 16
  store i64 4, ptr %11, align 8, !tbaa !26
  %12 = getelementptr inbounds nuw i8, ptr %3, i64 24
  store i32 0, ptr %12, align 8, !tbaa !27
  %13 = getelementptr inbounds nuw i8, ptr %3, i64 28
  store i32 0, ptr %13, align 4
  %14 = ptrtoint ptr %3 to i64
  %15 = call i64 @rb_ensure(ptr noundef nonnull @io_buffer_for_yield_instance, i64 noundef %14, ptr noundef nonnull @io_buffer_for_yield_instance_ensure, i64 noundef %14) #25
  call void @llvm.lifetime.end.p0(i64 32, ptr nonnull %3) #25
  ret i64 %9
}